target datalayout = "e-m:e-p270:32:32-p271:32:32-p272:64:64-i64:64-i128:128-f80:128-n8:16:32:64-S128"
target triple = "x86_64-pc-linux-gnu"

%struct.AVBSFContext = type { ptr, ptr, ptr, ptr, ptr, %struct.AVRational, %struct.AVRational }
%struct.AVRational = type { i32, i32 }
%struct.DTS2PTSContext = type { ptr, ptr, ptr, ptr, ptr, ptr, i64, ptr, %struct.CodedBitstreamFragment, %union.anon, i32, i32, i32 }
%struct.CodedBitstreamFragment = type { ptr, i64, i64, ptr, i32, i32, ptr }
%union.anon = type { %struct.DTS2PTSH264Context }
%struct.DTS2PTSH264Context = type { %struct.H264POCContext, %struct.SPS, i32, i32, i32, i32 }
%struct.H264POCContext = type { i32, i32, i32, [2 x i32], i32, i32, i32, i32, i32, i32 }
%struct.SPS = type { i32, i32, i32, i32, i32, i32, i32, i32, i32, i32, i32, i32, i32, i32, i32, i32, i32, i32, i32, i32, i32, i32, i32, i32, i32, %struct.H2645VUI, i32, i32, i32, i32, [256 x i32], i32, i32, i32, i32, i16, [6 x [16 x i8]], [6 x [64 x i8]], i32, i32, i32, i32, i32, i32, [32 x i32], [32 x i32], i32, i32, i32, i32, i32, i32, i32, i32, [4096 x i8], i64 }
%struct.H2645VUI = type { %struct.AVRational, i32, i32, i32, i32, i32, i32, i32, i32, i32, i32, i32, i32, i32, i32, i32 }
%struct.AVCodecParameters = type { i32, i32, i32, ptr, i32, ptr, i32, i32, i64, i32, i32, i32, i32, i32, i32, %struct.AVRational, %struct.AVRational, i32, i32, i32, i32, i32, i32, i32, %struct.AVChannelLayout, i32, i32, i32, i32, i32, i32 }
%struct.AVChannelLayout = type { i32, i32, %union.anon.0, ptr }
%union.anon.0 = type { i64 }

; Function Attrs: nounwind uwtable
define internal void @h264_flush(ptr noundef %0) #0 {
  %2 = alloca ptr, align 8
  %3 = alloca ptr, align 8
  %4 = alloca ptr, align 8
  store ptr %0, ptr %2, align 8, !tbaa !4
  call void @llvm.lifetime.start.p0(i64 8, ptr %3) #7
  %5 = load ptr, ptr %2, align 8, !tbaa !4
  %6 = getelementptr inbounds nuw %struct.AVBSFContext, ptr %5, i32 0, i32 2
  %7 = load ptr, ptr %6, align 8, !tbaa !9
  store ptr %7, ptr %3, align 8, !tbaa !16
  call void @llvm.lifetime.start.p0(i64 8, ptr %4) #7
  %8 = load ptr, ptr %3, align 8, !tbaa !16
  %9 = getelementptr inbounds nuw %struct.DTS2PTSContext, ptr %8, i32 0, i32 9
  store ptr %9, ptr %4, align 8, !tbaa !77
  %10 = load ptr, ptr %4, align 8, !tbaa !77
  %11 = getelementptr inbounds nuw %struct.DTS2PTSH264Context, ptr %10, i32 0, i32 1
  call void @llvm.memset.p0.i64(ptr align 8 %11, i8 0, i64 6128, i1 false)
  %12 = load ptr, ptr %4, align 8, !tbaa !77
  %13 = getelementptr inbounds nuw %struct.DTS2PTSH264Context, ptr %12, i32 0, i32 0
  call void @llvm.memset.p0.i64(ptr align 8 %13, i8 0, i64 44, i1 false)
  %14 = load ptr, ptr %2, align 8, !tbaa !4
  %15 = getelementptr inbounds nuw %struct.AVBSFContext, ptr %14, i32 0, i32 3
  %16 = load ptr, ptr %15, align 8, !tbaa !24
  %17 = getelementptr inbounds nuw %struct.AVCodecParameters, ptr %16, i32 0, i32 23
  %18 = load i32, ptr %17, align 8, !tbaa !84
  %19 = shl i32 %18, 1
  %20 = sub nsw i32 0, %19
  %21 = load ptr, ptr %3, align 8, !tbaa !16
  %22 = getelementptr inbounds nuw %struct.DTS2PTSContext, ptr %21, i32 0, i32 10
  store i32 %20, ptr %22, align 8, !tbaa !85
  %23 = load ptr, ptr %4, align 8, !tbaa !77
  %24 = getelementptr inbounds nuw %struct.DTS2PTSH264Context, ptr %23, i32 0, i32 4
  store i32 -2147483648, ptr %24, align 8, !tbaa !86
  %25 = load ptr, ptr %4, align 8, !tbaa !77
  %26 = getelementptr inbounds nuw %struct.DTS2PTSH264Context, ptr %25, i32 0, i32 3
  store i32 -2147483648, ptr %26, align 4, !tbaa !92
  call void @llvm.lifetime.end.p0(i64 8, ptr %4) #7
  call void @llvm.lifetime.end.p0(i64 8, ptr %3) #7
  ret void
}