; Function Attrs: mustprogress nofree norecurse nosync nounwind willreturn memory(readwrite, inaccessiblemem: none) uwtable
define internal void @h264_flush(ptr noundef readonly captures(none) %0) #3 {
  %2 = getelementptr inbounds nuw i8, ptr %0, i64 16
  %3 = load ptr, ptr %2, align 8, !tbaa !4
  %4 = getelementptr inbounds nuw i8, ptr %3, i64 112
  %5 = getelementptr inbounds nuw i8, ptr %3, i64 160
  tail call void @llvm.memset.p0.i64(ptr noundef nonnull align 8 dereferenceable(6128) %5, i8 0, i64 6128, i1 false)
  tail call void @llvm.memset.p0.i64(ptr noundef nonnull align 8 dereferenceable(44) %4, i8 0, i64 44, i1 false)
  %6 = getelementptr inbounds nuw i8, ptr %0, i64 24
  %7 = load ptr, ptr %6, align 8, !tbaa !14
  %8 = getelementptr inbounds nuw i8, ptr %7, i64 120
  %9 = load i32, ptr %8, align 8, !tbaa !69
  %.neg = mul i32 %9, -2
  %10 = getelementptr inbounds nuw i8, ptr %3, i64 6304
  store i32 %.neg, ptr %10, align 8, !tbaa !70
  %11 = getelementptr inbounds nuw i8, ptr %3, i64 6296
  store i32 -2147483648, ptr %11, align 8, !tbaa !71
  %12 = getelementptr inbounds nuw i8, ptr %3, i64 6292
  store i32 -2147483648, ptr %12, align 4, !tbaa !77
  ret void
}